; Function Attrs: nounwind uwtable
define dso_local noundef i64 @makeArrayResult(ptr noundef readonly captures(none) %0, ptr noundef %1) local_unnamed_addr #0 {
  %3 = alloca [1 x i32], align 4
  %4 = alloca [1 x i32], align 4
  call void @llvm.lifetime.start.p0(i64 4, ptr nonnull %3) #18
  call void @llvm.lifetime.start.p0(i64 4, ptr nonnull %4) #18
  %5 = getelementptr inbounds nuw i8, ptr %0, i64 28
  %6 = load i32, ptr %5, align 4
  %7 = icmp sgt i32 %6, 0
  %8 = zext i1 %7 to i32
  store i32 %6, ptr %3, align 4
  store i32 1, ptr %4, align 4
  %9 = getelementptr inbounds nuw i8, ptr %0, i64 40
  %10 = load i8, ptr %9, align 8, !range !4, !noundef !5
  %11 = trunc nuw i8 %10 to i1
  %12 = load ptr, ptr @CurrentMemoryContext, align 8
  store ptr %1, ptr @CurrentMemoryContext, align 8
  %13 = getelementptr inbounds nuw i8, ptr %0, i64 8
  %14 = load ptr, ptr %13, align 8
  %15 = getelementptr inbounds nuw i8, ptr %0, i64 16
  %16 = load ptr, ptr %15, align 8
  %17 = getelementptr inbounds nuw i8, ptr %0, i64 32
  %18 = load i32, ptr %17, align 8
  %19 = getelementptr inbounds nuw i8, ptr %0, i64 36
  %20 = load i16, ptr %19, align 4
  %21 = sext i16 %20 to i32
  %22 = getelementptr inbounds nuw i8, ptr %0, i64 38
  %23 = load i8, ptr %22, align 2, !range !4, !noundef !5
  %24 = trunc nuw i8 %23 to i1
  %25 = getelementptr inbounds nuw i8, ptr %0, i64 39
  %26 = load i8, ptr %25, align 1
  %27 = call ptr @construct_md_array(ptr noundef %14, ptr noundef %16, i32 noundef %8, ptr noundef nonnull %3, ptr noundef nonnull %4, i32 noundef %18, i32 noundef %21, i1 noundef zeroext %24, i8 noundef signext %26)
  store ptr %12, ptr @CurrentMemoryContext, align 8
  br i1 %11, label %28, label %makeMdArrayResult.exit

28:                                               ; preds = %2
  %29 = load ptr, ptr %0, align 8
  call void @MemoryContextDelete(ptr noundef %29) #18
  br label %makeMdArrayResult.exit

makeMdArrayResult.exit:                           ; preds = %2, %28
  %30 = ptrtoint ptr %27 to i64
  call void @llvm.lifetime.end.p0(i64 4, ptr nonnull %4) #18
  call void @llvm.lifetime.end.p0(i64 4, ptr nonnull %3) #18
  ret i64 %30
}